target datalayout = "e-m:e-p270:32:32-p271:32:32-p272:64:64-i64:64-i128:128-f80:128-n8:16:32:64-S128"
target triple = "x86_64-pc-linux-gnu"

%"struct.std::_Rb_tree_header" = type { %"struct.std::_Rb_tree_node_base", i64 }
%"struct.std::_Rb_tree_node_base" = type { i32, ptr, ptr, ptr }
%"class.std::__cxx11::basic_string" = type { %"struct.std::__cxx11::basic_string<char>::_Alloc_hider", i64, %union.anon }
%"struct.std::__cxx11::basic_string<char>::_Alloc_hider" = type { ptr }
%union.anon = type { i64, [8 x i8] }
%struct.PJconsts = type { ptr, ptr, ptr, ptr, ptr, ptr, ptr, ptr, ptr, ptr, ptr, ptr, i32, ptr, ptr, ptr, ptr, ptr, ptr, ptr, ptr, double, double, double, double, double, double, double, double, double, double, double, double, double, double, double, double, double, double, double, double, double, double, i32, i32, i32, i32, i32, i32, i32, i32, i32, i32, i32, ptr, ptr, ptr, ptr, ptr, ptr, double, double, double, double, double, double, double, double, double, double, double, i32, [7 x double], i32, ptr, ptr, double, double, i32, [4 x i8], %"class.std::shared_ptr", i8, double, i8, %"class.std::__cxx11::basic_string", %"class.std::__cxx11::basic_string", %"class.std::__cxx11::basic_string", i8, %"class.std::vector", i32, %"class.std::vector.6", i32, i8, i8, i8, ptr }
%"class.std::shared_ptr" = type { %"class.std::__shared_ptr" }
%"class.std::__shared_ptr" = type { ptr, %"class.std::__shared_count" }
%"class.std::__shared_count" = type { ptr }
%"class.std::vector" = type { %"struct.std::_Vector_base" }
%"struct.std::_Vector_base" = type { %"struct.std::_Vector_base<osgeo::proj::operation::GridDescription, std::allocator<osgeo::proj::operation::GridDescription>>::_Vector_impl" }
%"struct.std::_Vector_base<osgeo::proj::operation::GridDescription, std::allocator<osgeo::proj::operation::GridDescription>>::_Vector_impl" = type { %"struct.std::_Vector_base<osgeo::proj::operation::GridDescription, std::allocator<osgeo::proj::operation::GridDescription>>::_Vector_impl_data" }
%"struct.std::_Vector_base<osgeo::proj::operation::GridDescription, std::allocator<osgeo::proj::operation::GridDescription>>::_Vector_impl_data" = type { ptr, ptr, ptr }
%"class.std::vector.6" = type { %"struct.std::_Vector_base.7" }
%"struct.std::_Vector_base.7" = type { %"struct.std::_Vector_base<PJCoordOperation, std::allocator<PJCoordOperation>>::_Vector_impl" }
%"struct.std::_Vector_base<PJCoordOperation, std::allocator<PJCoordOperation>>::_Vector_impl" = type { %"struct.std::_Vector_base<PJCoordOperation, std::allocator<PJCoordOperation>>::_Vector_impl_data" }
%"struct.std::_Vector_base<PJCoordOperation, std::allocator<PJCoordOperation>>::_Vector_impl_data" = type { ptr, ptr, ptr }
%"class.std::vector.11" = type { %"struct.std::_Vector_base.12" }
%"struct.std::_Vector_base.12" = type { %"struct.std::_Vector_base<std::unique_ptr<osgeo::proj::GenericShiftGridSet>, std::allocator<std::unique_ptr<osgeo::proj::GenericShiftGridSet>>>::_Vector_impl" }
%"struct.std::_Vector_base<std::unique_ptr<osgeo::proj::GenericShiftGridSet>, std::allocator<std::unique_ptr<osgeo::proj::GenericShiftGridSet>>>::_Vector_impl" = type { %"struct.std::_Vector_base<std::unique_ptr<osgeo::proj::GenericShiftGridSet>, std::allocator<std::unique_ptr<osgeo::proj::GenericShiftGridSet>>>::_Vector_impl_data" }
%"struct.std::_Vector_base<std::unique_ptr<osgeo::proj::GenericShiftGridSet>, std::allocator<std::unique_ptr<osgeo::proj::GenericShiftGridSet>>>::_Vector_impl_data" = type { ptr, ptr, ptr }
%"struct.(anonymous namespace)::gridshiftData" = type { %"class.std::vector.11", i8, i32, i8, i8, i8, i8, i8, i8, i8, %"class.std::__cxx11::basic_string", %"class.std::__cxx11::basic_string", %"class.std::__cxx11::basic_string", %"class.std::map.16", double, double }
%"class.std::map.16" = type { %"class.std::_Rb_tree.17" }
%"class.std::_Rb_tree.17" = type { %"struct.std::_Rb_tree<const osgeo::proj::GenericShiftGrid *, std::pair<const osgeo::proj::GenericShiftGrid *const, (anonymous namespace)::GridInfo>, std::_Select1st<std::pair<const osgeo::proj::GenericShiftGrid *const, (anonymous namespace)::GridInfo>>, std::less<const osgeo::proj::GenericShiftGrid *>>::_Rb_tree_impl" }
%"struct.std::_Rb_tree<const osgeo::proj::GenericShiftGrid *, std::pair<const osgeo::proj::GenericShiftGrid *const, (anonymous namespace)::GridInfo>, std::_Select1st<std::pair<const osgeo::proj::GenericShiftGrid *const, (anonymous namespace)::GridInfo>>, std::less<const osgeo::proj::GenericShiftGrid *>>::_Rb_tree_impl" = type { [8 x i8], %"struct.std::_Rb_tree_header" }
%struct.PJ_XYZ = type { double, double, double }
%struct.PJ_LPZ = type { double, double, double }
%union.PJ_COORD = type { [4 x double] }

; Function Attrs: mustprogress uwtable
define internal void @_ZL23pj_gridshift_forward_3d6PJ_LPZP8PJconsts(ptr dead_on_unwind noalias writable sret(%struct.PJ_XYZ) align 8 %0, ptr noundef byval(%struct.PJ_LPZ) align 8 %1, ptr noundef %2) #5 {
  %4 = alloca ptr, align 8
  %5 = alloca ptr, align 8
  %6 = alloca %union.PJ_COORD, align 8
  %7 = alloca i32, align 4
  %8 = alloca %struct.PJ_XYZ, align 8
  %9 = alloca %struct.PJ_XYZ, align 8
  store ptr %2, ptr %4, align 8, !tbaa !16
  call void @llvm.lifetime.start.p0(i64 8, ptr %5) #3
  %10 = load ptr, ptr %4, align 8, !tbaa !16
  %11 = getelementptr inbounds nuw %struct.PJconsts, ptr %10, i32 0, i32 11
  %12 = load ptr, ptr %11, align 8, !tbaa !52
  store ptr %12, ptr %5, align 8, !tbaa !50
  %13 = load ptr, ptr %5, align 8, !tbaa !50
  %14 = load ptr, ptr %4, align 8, !tbaa !16
  %15 = call noundef zeroext i1 @_ZN12_GLOBAL__N_113gridshiftData17loadGridsIfNeededEP8PJconsts(ptr noundef nonnull align 8 dereferenceable(200) %13, ptr noundef %14)
  br i1 %15, label %17, label %16

16:                                               ; preds = %3
  call void @llvm.lifetime.start.p0(i64 32, ptr %6) #3
  call void @_Z16proj_coord_errorv(ptr dead_on_unwind writable sret(%union.PJ_COORD) align 8 %6)
  call void @llvm.memcpy.p0.p0.i64(ptr align 8 %0, ptr align 8 %6, i64 24, i1 false), !tbaa.struct !119
  call void @llvm.lifetime.end.p0(i64 32, ptr %6) #3
  store i32 1, ptr %7, align 4
  br label %41

17:                                               ; preds = %3
  %18 = getelementptr inbounds nuw %struct.PJ_LPZ, ptr %1, i32 0, i32 0
  %19 = load double, ptr %18, align 8, !tbaa !121
  %20 = getelementptr inbounds nuw %struct.PJ_XYZ, ptr %0, i32 0, i32 0
  store double %19, ptr %20, align 8, !tbaa !123
  %21 = getelementptr inbounds nuw %struct.PJ_LPZ, ptr %1, i32 0, i32 1
  %22 = load double, ptr %21, align 8, !tbaa !125
  %23 = getelementptr inbounds nuw %struct.PJ_XYZ, ptr %0, i32 0, i32 1
  store double %22, ptr %23, align 8, !tbaa !126
  %24 = getelementptr inbounds nuw %struct.PJ_LPZ, ptr %1, i32 0, i32 2
  %25 = load double, ptr %24, align 8, !tbaa !127
  %26 = getelementptr inbounds nuw %struct.PJ_XYZ, ptr %0, i32 0, i32 2
  store double %25, ptr %26, align 8, !tbaa !128
  call void @llvm.lifetime.start.p0(i64 24, ptr %8) #3
  %27 = load ptr, ptr %5, align 8, !tbaa !50
  %28 = load ptr, ptr %4, align 8, !tbaa !16
  call void @llvm.memcpy.p0.p0.i64(ptr align 8 %9, ptr align 8 %0, i64 24, i1 false), !tbaa.struct !119
  call void @_ZN12_GLOBAL__N_113gridshiftData5applyEP8PJconsts12PJ_DIRECTION6PJ_XYZ(ptr dead_on_unwind writable sret(%struct.PJ_XYZ) align 8 %8, ptr noundef nonnull align 8 dereferenceable(200) %27, ptr noundef %28, i32 noundef 1, ptr noundef byval(%struct.PJ_XYZ) align 8 %9)
  call void @llvm.memcpy.p0.p0.i64(ptr align 8 %0, ptr align 8 %8, i64 24, i1 false), !tbaa.struct !119
  call void @llvm.lifetime.end.p0(i64 24, ptr %8) #3
  %29 = load ptr, ptr %5, align 8, !tbaa !50
  %30 = getelementptr inbounds nuw %"struct.(anonymous namespace)::gridshiftData", ptr %29, i32 0, i32 14
  %31 = load double, ptr %30, align 8, !tbaa !110
  %32 = getelementptr inbounds nuw %struct.PJ_XYZ, ptr %0, i32 0, i32 0
  %33 = load double, ptr %32, align 8, !tbaa !123
  %34 = fadd double %33, %31
  store double %34, ptr %32, align 8, !tbaa !123
  %35 = load ptr, ptr %5, align 8, !tbaa !50
  %36 = getelementptr inbounds nuw %"struct.(anonymous namespace)::gridshiftData", ptr %35, i32 0, i32 15
  %37 = load double, ptr %36, align 8, !tbaa !111
  %38 = getelementptr inbounds nuw %struct.PJ_XYZ, ptr %0, i32 0, i32 1
  %39 = load double, ptr %38, align 8, !tbaa !126
  %40 = fadd double %39, %37
  store double %40, ptr %38, align 8, !tbaa !126
  store i32 1, ptr %7, align 4
  br label %41

41:                                               ; preds = %17, %16
  call void @llvm.lifetime.end.p0(i64 8, ptr %5) #3
  ret void
}