; Function Attrs: mustprogress uwtable
define internal void @_ZL23pj_gridshift_forward_3d6PJ_LPZP8PJconsts(ptr dead_on_unwind noalias writable sret(%struct.PJ_XYZ) align 8 captures(none) initializes((0, 24)) %0, ptr noundef readonly byval(%struct.PJ_LPZ) align 8 captures(none) %1, ptr noundef %2) #4 {
  %4 = alloca %union.PJ_COORD, align 8
  %5 = alloca %struct.PJ_XYZ, align 8
  %6 = getelementptr inbounds nuw i8, ptr %2, i64 88
  %7 = load ptr, ptr %6, align 8, !tbaa !50
  %8 = tail call fastcc noundef zeroext i1 @_ZN12_GLOBAL__N_113gridshiftData17loadGridsIfNeededEP8PJconsts(ptr noundef nonnull align 8 dereferenceable(200) %7, ptr noundef %2)
  br i1 %8, label %10, label %9

9:                                                ; preds = %3
  call void @llvm.lifetime.start.p0(i64 32, ptr nonnull %4) #23
  call void @_Z16proj_coord_errorv(ptr dead_on_unwind nonnull writable sret(%union.PJ_COORD) align 8 %4)
  call void @llvm.memcpy.p0.p0.i64(ptr noundef nonnull align 8 dereferenceable(24) %0, ptr noundef nonnull align 8 dereferenceable(24) %4, i64 24, i1 false), !tbaa.struct !109
  call void @llvm.lifetime.end.p0(i64 32, ptr nonnull %4) #23
  br label %26

10:                                               ; preds = %3
  %11 = load double, ptr %1, align 8, !tbaa !111
  store double %11, ptr %0, align 8, !tbaa !113
  %12 = getelementptr inbounds nuw i8, ptr %1, i64 8
  %13 = load double, ptr %12, align 8, !tbaa !115
  %14 = getelementptr inbounds nuw i8, ptr %0, i64 8
  store double %13, ptr %14, align 8, !tbaa !116
  %15 = getelementptr inbounds nuw i8, ptr %1, i64 16
  %16 = load double, ptr %15, align 8, !tbaa !117
  %17 = getelementptr inbounds nuw i8, ptr %0, i64 16
  store double %16, ptr %17, align 8, !tbaa !118
  call void @llvm.lifetime.start.p0(i64 24, ptr nonnull %5) #23
  call fastcc void @_ZN12_GLOBAL__N_113gridshiftData5applyEP8PJconsts12PJ_DIRECTION6PJ_XYZ(ptr dead_on_unwind noalias writable align 8 %5, ptr noundef nonnull align 8 dereferenceable(200) %7, ptr noundef nonnull %2, i32 noundef 1, ptr noundef nonnull byval(%struct.PJ_XYZ) align 8 %0)
  call void @llvm.memcpy.p0.p0.i64(ptr noundef nonnull align 8 dereferenceable(24) %0, ptr noundef nonnull align 8 dereferenceable(24) %5, i64 24, i1 false), !tbaa.struct !109
  call void @llvm.lifetime.end.p0(i64 24, ptr nonnull %5) #23
  %18 = getelementptr inbounds nuw i8, ptr %7, i64 184
  %19 = load double, ptr %18, align 8, !tbaa !119
  %20 = load double, ptr %0, align 8, !tbaa !113
  %21 = fadd double %19, %20
  store double %21, ptr %0, align 8, !tbaa !113
  %22 = getelementptr inbounds nuw i8, ptr %7, i64 192
  %23 = load double, ptr %22, align 8, !tbaa !120
  %24 = load double, ptr %14, align 8, !tbaa !116
  %25 = fadd double %23, %24
  store double %25, ptr %14, align 8, !tbaa !116
  br label %26

26:                                               ; preds = %10, %9
  ret void
}